
Memory Configuration

Name             Origin             Length             Attributes
rom              0x0000000000400000 0x0000000000010000 xrl
ram              0x0000000010000000 0x0000000000010000 w !l
*default*        0x0000000000000000 0xffffffffffffffff

Linker script and memory map


.init           0x0000000000400000       0x1c
 *(.init)
 .init          0x0000000000400000       0x1c crt0.o
                0x0000000000400000                _start

.text           0x000000000040001c      0x7fc
 *(.text)
 .text          0x000000000040001c        0x0 crt0.o
 .text          0x000000000040001c       0xe8 main.o
                0x000000000040001c                main
 .text          0x0000000000400104      0x198 lib.o
                0x0000000000400104                abs
                0x0000000000400114                printchar
                0x0000000000400120                println
                0x0000000000400130                printstr
                0x0000000000400150                printint
                0x00000000004001cc                pollkbd
                0x00000000004001d8                readchar
                0x00000000004001e4                readstr
                0x0000000000400238                readint
 .text          0x000000000040029c       0x24 showpic.o
                0x000000000040029c                showpic
 .text          0x00000000004002c0       0x48 random.o
                0x00000000004002c0                initseed
                0x00000000004002dc                random
 .text          0x0000000000400308       0xe4 shapes.o
                0x0000000000400308                apply_mask
                0x0000000000400354                reset_mask
                0x000000000040038c                initialize
 .text          0x00000000004003ec       0x14 display.o
                0x00000000004003ec                paint_row
 .text          0x0000000000400400      0x15c matrix.o
                0x0000000000400400                bit_or_matrix
                0x0000000000400434                bit_and_matrix
                0x0000000000400468                rotate_cw
                0x00000000004004e4                rotate_ccw
 .text          0x000000000040055c      0x17c movement.o
                0x000000000040055c                mv_piece_l
                0x00000000004005a4                mv_piece_r
                0x00000000004005f8                mv_piece_d
                0x0000000000400638                mv_piece_u
                0x0000000000400678                r_piece_cw
                0x00000000004006a8                r_piece_ccw
 .text          0x00000000004006d8      0x140 physics.o
                0x00000000004006d8                colision_check
                0x0000000000400748                consolidate_rows
                0x000000000040078c                clear_rows

.rela.dyn       0x0000000000400818        0x0
 .rela.init     0x0000000000400818        0x0 crt0.o

.data           0x0000000000400818       0xd8
 .data          0x0000000000400818        0x0 crt0.o
 .data          0x0000000000400818        0x0 main.o
 .data          0x0000000000400818        0x0 lib.o
 .data          0x0000000000400818        0x0 showpic.o
 .data          0x0000000000400818        0x4 random.o
 .data          0x000000000040081c       0xd4 shapes.o
                0x000000000040081c                pieces
                0x000000000040088c                play_area
 .data          0x00000000004008f0        0x0 display.o
 .data          0x00000000004008f0        0x0 matrix.o
 .data          0x00000000004008f0        0x0 movement.o
 .data          0x00000000004008f0        0x0 physics.o

.srodata
 *(.srodata)

.bss            0x0000000010000000       0x84
 *(.bss)
 .bss           0x0000000010000000        0x0 crt0.o
 .bss           0x0000000010000000        0x0 main.o
 .bss           0x0000000010000000        0x0 lib.o
 .bss           0x0000000010000000        0x0 showpic.o
 .bss           0x0000000010000000        0x0 random.o
 .bss           0x0000000010000000       0x74 shapes.o
                0x0000000010000000                piece_mask
                0x0000000010000064                current_piece
 .bss           0x0000000010000074        0x0 display.o
 .bss           0x0000000010000074        0x0 matrix.o
 .bss           0x0000000010000074        0x0 movement.o
 .bss           0x0000000010000074       0x10 physics.o
                0x0000000010000074                result
 *(COMMON)
                0x000000001000fffc                PROVIDE (__stack_init = ((ORIGIN (ram) + LENGTH (ram)) - 0x4))
LOAD crt0.o
LOAD main.o
LOAD lib.o
LOAD showpic.o
LOAD random.o
LOAD shapes.o
LOAD display.o
LOAD matrix.o
LOAD movement.o
LOAD physics.o
OUTPUT(tetris elf32-littleriscv)

.sbss           0x0000000010000084        0x8
 .sbss          0x0000000010000084        0x8 shapes.o
                0x0000000010000084                piece_col
                0x0000000010000088                piece_row

.riscv.attributes
                0x0000000000000000       0x21
 .riscv.attributes
                0x0000000000000000       0x1f crt0.o
 .riscv.attributes
                0x000000000000001f       0x21 main.o
 .riscv.attributes
                0x0000000000000040       0x21 lib.o
 .riscv.attributes
                0x0000000000000061       0x1f showpic.o
 .riscv.attributes
                0x0000000000000080       0x1f random.o
 .riscv.attributes
                0x000000000000009f       0x21 shapes.o
 .riscv.attributes
                0x00000000000000c0       0x21 display.o
 .riscv.attributes
                0x00000000000000e1       0x21 matrix.o
 .riscv.attributes
                0x0000000000000102       0x21 movement.o
 .riscv.attributes
                0x0000000000000123       0x21 physics.o

.comment        0x0000000000000000        0xf
 .comment       0x0000000000000000        0xf main.o
                                         0x10 (size before relaxing)
 .comment       0x000000000000000f       0x10 lib.o
 .comment       0x000000000000000f       0x10 shapes.o
 .comment       0x000000000000000f       0x10 display.o
 .comment       0x000000000000000f       0x10 matrix.o
 .comment       0x000000000000000f       0x10 movement.o
 .comment       0x000000000000000f       0x10 physics.o

.debug_line     0x0000000000000000     0x13b3
 .debug_line    0x0000000000000000       0x55 crt0.o
 .debug_line    0x0000000000000055      0x18e main.o
 .debug_line    0x00000000000001e3      0x4f2 lib.o
 .debug_line    0x00000000000006d5       0x6a showpic.o
 .debug_line    0x000000000000073f       0x8d random.o
 .debug_line    0x00000000000007cc      0x238 shapes.o
 .debug_line    0x0000000000000a04       0x63 display.o
 .debug_line    0x0000000000000a67      0x3e2 matrix.o
 .debug_line    0x0000000000000e49      0x2d0 movement.o
 .debug_line    0x0000000000001119      0x29a physics.o

.debug_info     0x0000000000000000      0xc0c
 .debug_info    0x0000000000000000       0x26 crt0.o
 .debug_info    0x0000000000000026      0x132 main.o
 .debug_info    0x0000000000000158      0x2b7 lib.o
 .debug_info    0x000000000000040f       0x26 showpic.o
 .debug_info    0x0000000000000435       0x26 random.o
 .debug_info    0x000000000000045b      0x1c0 shapes.o
 .debug_info    0x000000000000061b       0x62 display.o
 .debug_info    0x000000000000067d      0x214 matrix.o
 .debug_info    0x0000000000000891      0x1fe movement.o
 .debug_info    0x0000000000000a8f      0x17d physics.o

.debug_abbrev   0x0000000000000000      0x72e
 .debug_abbrev  0x0000000000000000       0x14 crt0.o
 .debug_abbrev  0x0000000000000014       0xd6 main.o
 .debug_abbrev  0x00000000000000ea      0x1fb lib.o
 .debug_abbrev  0x00000000000002e5       0x14 showpic.o
 .debug_abbrev  0x00000000000002f9       0x14 random.o
 .debug_abbrev  0x000000000000030d       0xea shapes.o
 .debug_abbrev  0x00000000000003f7       0x5d display.o
 .debug_abbrev  0x0000000000000454       0xe9 matrix.o
 .debug_abbrev  0x000000000000053d      0x10a movement.o
 .debug_abbrev  0x0000000000000647       0xe7 physics.o

.debug_aranges  0x0000000000000000      0x140
 .debug_aranges
                0x0000000000000000       0x20 crt0.o
 .debug_aranges
                0x0000000000000020       0x20 main.o
 .debug_aranges
                0x0000000000000040       0x20 lib.o
 .debug_aranges
                0x0000000000000060       0x20 showpic.o
 .debug_aranges
                0x0000000000000080       0x20 random.o
 .debug_aranges
                0x00000000000000a0       0x20 shapes.o
 .debug_aranges
                0x00000000000000c0       0x20 display.o
 .debug_aranges
                0x00000000000000e0       0x20 matrix.o
 .debug_aranges
                0x0000000000000100       0x20 movement.o
 .debug_aranges
                0x0000000000000120       0x20 physics.o

.debug_str      0x0000000000000000      0x2c9
 .debug_str     0x0000000000000000       0x43 crt0.o
 .debug_str     0x0000000000000043       0x9f main.o
                                         0xcd (size before relaxing)
 .debug_str     0x00000000000000e2       0x5b lib.o
                                         0xca (size before relaxing)
 .debug_str     0x000000000000013d        0xa showpic.o
                                         0x46 (size before relaxing)
 .debug_str     0x0000000000000147        0x9 random.o
                                         0x45 (size before relaxing)
 .debug_str     0x0000000000000150       0x98 shapes.o
                                        0x104 (size before relaxing)
 .debug_str     0x00000000000001e8       0x12 display.o
                                         0x79 (size before relaxing)
 .debug_str     0x00000000000001fa       0x57 matrix.o
                                         0xcd (size before relaxing)
 .debug_str     0x0000000000000251       0x43 movement.o
                                        0x108 (size before relaxing)
 .debug_str     0x0000000000000294       0x35 physics.o
                                         0xf1 (size before relaxing)

.debug_loc      0x0000000000000000      0x5e1
 .debug_loc     0x0000000000000000       0x51 main.o
 .debug_loc     0x0000000000000051      0x1eb lib.o
 .debug_loc     0x000000000000023c       0x92 shapes.o
 .debug_loc     0x00000000000002ce       0x21 display.o
 .debug_loc     0x00000000000002ef      0x1b8 matrix.o
 .debug_loc     0x00000000000004a7       0x93 movement.o
 .debug_loc     0x000000000000053a       0xa7 physics.o

.debug_ranges   0x0000000000000000      0x108
 .debug_ranges  0x0000000000000000       0x18 main.o
 .debug_ranges  0x0000000000000018       0x60 lib.o
 .debug_ranges  0x0000000000000078       0x48 matrix.o
 .debug_ranges  0x00000000000000c0       0x48 physics.o

.debug_frame    0x0000000000000000      0x2a8
 .debug_frame   0x0000000000000000       0x48 main.o
 .debug_frame   0x0000000000000048       0xa8 lib.o
 .debug_frame   0x00000000000000f0       0x4c shapes.o
 .debug_frame   0x000000000000013c       0x20 display.o
 .debug_frame   0x000000000000015c       0x60 matrix.o
 .debug_frame   0x00000000000001bc       0x90 movement.o
 .debug_frame   0x000000000000024c       0x5c physics.o
